target datalayout = "e-m:e-p270:32:32-p271:32:32-p272:64:64-i64:64-i128:128-f80:128-n8:16:32:64-S128"
target triple = "x86_64-pc-linux-gnu"

%"struct.c4::yml::Callbacks" = type { ptr, ptr, ptr, ptr }
%"struct.c4::basic_substring.0" = type { ptr, i64 }
%"struct.c4::basic_substring" = type { ptr, i64 }
%"class.c4::yml::Tree" = type { ptr, i64, i64, i64, i64, %"struct.c4::basic_substring", i64, %"struct.c4::yml::Callbacks", [4 x %"struct.c4::yml::TagDirective"] }
%"struct.c4::yml::TagDirective" = type { %"struct.c4::basic_substring.0", %"struct.c4::basic_substring.0", i64 }
%"struct.c4::yml::NodeData" = type { %"struct.c4::yml::NodeType", %"struct.c4::yml::NodeScalar", %"struct.c4::yml::NodeScalar", i64, i64, i64, i64, i64 }
%"struct.c4::yml::NodeType" = type { i64 }
%"struct.c4::yml::NodeScalar" = type { %"struct.c4::basic_substring.0", %"struct.c4::basic_substring.0", %"struct.c4::basic_substring.0" }
%"struct.c4::yml::Tree::lookup_result" = type { i64, i64, i64, %"struct.c4::basic_substring.0" }
%"struct.c4::yml::Tree::_lookup_path_token" = type { %"struct.c4::basic_substring.0", %"struct.c4::yml::NodeType" }

@.str.54 = private unnamed_addr constant [1 x i8] zeroinitializer, align 1

; Function Attrs: noinline noreturn nounwind uwtable
define linkonce_odr hidden void @__clang_call_terminate(ptr noundef %0) #20 comdat {
  %2 = call ptr @__cxa_begin_catch(ptr %0) #25
  call void @_ZSt9terminatev() #27
  unreachable
}

; Function Attrs: mustprogress nounwind uwtable
define linkonce_odr void @_ZN2c415basic_substringIKcEC2EPS1_m(ptr noundef nonnull align 8 dereferenceable(16) %0, ptr noundef %1, i64 noundef %2) unnamed_addr #0 comdat align 2 {
  %4 = alloca ptr, align 8
  %5 = alloca ptr, align 8
  %6 = alloca i64, align 8
  store ptr %0, ptr %4, align 8, !tbaa !45
  store ptr %1, ptr %5, align 8, !tbaa !20
  store i64 %2, ptr %6, align 8, !tbaa !15
  %7 = load ptr, ptr %4, align 8
  %8 = getelementptr inbounds nuw %"struct.c4::basic_substring.0", ptr %7, i32 0, i32 0
  %9 = load ptr, ptr %5, align 8, !tbaa !20
  store ptr %9, ptr %8, align 8, !tbaa !37
  %10 = getelementptr inbounds nuw %"struct.c4::basic_substring.0", ptr %7, i32 0, i32 1
  %11 = load i64, ptr %6, align 8, !tbaa !15
  store i64 %11, ptr %10, align 8, !tbaa !39
  ret void
}

; Function Attrs: alwaysinline mustprogress nounwind willreturn memory(read) uwtable
define linkonce_odr { ptr, i64 } @_ZNK2c415basic_substringIKcE3subEm(ptr noundef nonnull align 8 dereferenceable(16) %0, i64 noundef %1) #4 comdat align 2 personality ptr @__gxx_personality_v0 {
  %3 = alloca %"struct.c4::basic_substring.0", align 8
  %4 = alloca ptr, align 8
  %5 = alloca i64, align 8
  store ptr %0, ptr %4, align 8, !tbaa !45
  store i64 %1, ptr %5, align 8, !tbaa !15
  %6 = load ptr, ptr %4, align 8
  %7 = getelementptr inbounds nuw %"struct.c4::basic_substring.0", ptr %6, i32 0, i32 0
  %8 = load ptr, ptr %7, align 8, !tbaa !37
  %9 = load i64, ptr %5, align 8, !tbaa !15
  %10 = getelementptr inbounds nuw i8, ptr %8, i64 %9
  %11 = getelementptr inbounds nuw %"struct.c4::basic_substring.0", ptr %6, i32 0, i32 1
  %12 = load i64, ptr %11, align 8, !tbaa !39
  %13 = load i64, ptr %5, align 8, !tbaa !15
  %14 = sub i64 %12, %13
  invoke void @_ZN2c415basic_substringIKcEC2EPS1_m(ptr noundef nonnull align 8 dereferenceable(16) %3, ptr noundef %10, i64 noundef %14)
          to label %15 unwind label %17

15:                                               ; preds = %2
  %16 = load { ptr, i64 }, ptr %3, align 8
  ret { ptr, i64 } %16

17:                                               ; preds = %2
  %18 = landingpad { ptr, i32 }
          catch ptr null
  %19 = extractvalue { ptr, i32 } %18, 0
  call void @__clang_call_terminate(ptr %19) #27
  unreachable
}

; Function Attrs: inlinehint mustprogress nounwind uwtable
define linkonce_odr noundef ptr @_ZNK2c43yml4Tree2_pEm(ptr noundef nonnull align 8 dereferenceable(256) %0, i64 noundef %1) #3 comdat align 2 {
  %3 = alloca ptr, align 8
  %4 = alloca i64, align 8
  store ptr %0, ptr %3, align 8, !tbaa !96
  store i64 %1, ptr %4, align 8, !tbaa !15
  %5 = load ptr, ptr %3, align 8
  %6 = getelementptr inbounds nuw %"class.c4::yml::Tree", ptr %5, i32 0, i32 0
  %7 = load ptr, ptr %6, align 8, !tbaa !118
  %8 = load i64, ptr %4, align 8, !tbaa !15
  %9 = getelementptr inbounds nuw %"struct.c4::yml::NodeData", ptr %7, i64 %8
  ret ptr %9
}

; Function Attrs: alwaysinline mustprogress nounwind willreturn memory(read) uwtable
define linkonce_odr noundef zeroext i1 @_ZNK2c415basic_substringIKcE5emptyEv(ptr noundef nonnull align 8 dereferenceable(16) %0) #4 comdat align 2 {
  %2 = alloca ptr, align 8
  store ptr %0, ptr %2, align 8, !tbaa !45
  %3 = load ptr, ptr %2, align 8
  %4 = getelementptr inbounds nuw %"struct.c4::basic_substring.0", ptr %3, i32 0, i32 1
  %5 = load i64, ptr %4, align 8, !tbaa !39
  %6 = icmp eq i64 %5, 0
  br i1 %6, label %11, label %7

7:                                                ; preds = %1
  %8 = getelementptr inbounds nuw %"struct.c4::basic_substring.0", ptr %3, i32 0, i32 0
  %9 = load ptr, ptr %8, align 8, !tbaa !37
  %10 = icmp eq ptr %9, null
  br label %11

11:                                               ; preds = %7, %1
  %12 = phi i1 [ true, %1 ], [ %10, %7 ]
  ret i1 %12
}

; Function Attrs: mustprogress nounwind uwtable
define { ptr, i64 } @_ZNK2c43yml4Tree13lookup_result10unresolvedEv(ptr noundef nonnull align 8 dereferenceable(40) %0) #0 align 2 {
  %2 = alloca %"struct.c4::basic_substring.0", align 8
  %3 = alloca ptr, align 8
  store ptr %0, ptr %3, align 8, !tbaa !204
  %4 = load ptr, ptr %3, align 8
  %5 = getelementptr inbounds nuw %"struct.c4::yml::Tree::lookup_result", ptr %4, i32 0, i32 3
  %6 = getelementptr inbounds nuw %"struct.c4::yml::Tree::lookup_result", ptr %4, i32 0, i32 2
  %7 = load i64, ptr %6, align 8, !tbaa !206
  %8 = call { ptr, i64 } @_ZNK2c415basic_substringIKcE3subEm(ptr noundef nonnull align 8 dereferenceable(16) %5, i64 noundef %7) #26
  %9 = getelementptr inbounds nuw { ptr, i64 }, ptr %2, i32 0, i32 0
  %10 = extractvalue { ptr, i64 } %8, 0
  store ptr %10, ptr %9, align 8
  %11 = getelementptr inbounds nuw { ptr, i64 }, ptr %2, i32 0, i32 1
  %12 = extractvalue { ptr, i64 } %8, 1
  store i64 %12, ptr %11, align 8
  %13 = load { ptr, i64 }, ptr %2, align 8
  ret { ptr, i64 } %13
}

; Function Attrs: mustprogress nounwind uwtable
define linkonce_odr void @_ZN2c43yml4Tree18_lookup_path_tokenC2ENS_15basic_substringIKcEENS0_8NodeTypeE(ptr noundef nonnull align 8 dereferenceable(24) %0, ptr %1, i64 %2, i64 %3) unnamed_addr #0 comdat align 2 {
  %5 = alloca %"struct.c4::basic_substring.0", align 8
  %6 = alloca %"struct.c4::yml::NodeType", align 8
  %7 = alloca ptr, align 8
  %8 = getelementptr inbounds nuw { ptr, i64 }, ptr %5, i32 0, i32 0
  store ptr %1, ptr %8, align 8
  %9 = getelementptr inbounds nuw { ptr, i64 }, ptr %5, i32 0, i32 1
  store i64 %2, ptr %9, align 8
  %10 = getelementptr inbounds nuw %"struct.c4::yml::NodeType", ptr %6, i32 0, i32 0
  store i64 %3, ptr %10, align 8
  store ptr %0, ptr %7, align 8, !tbaa !212
  %11 = load ptr, ptr %7, align 8
  %12 = getelementptr inbounds nuw %"struct.c4::yml::Tree::_lookup_path_token", ptr %11, i32 0, i32 0
  call void @llvm.memcpy.p0.p0.i64(ptr align 8 %12, ptr align 8 %5, i64 16, i1 false), !tbaa.struct !69
  %13 = getelementptr inbounds nuw %"struct.c4::yml::Tree::_lookup_path_token", ptr %11, i32 0, i32 1
  call void @llvm.memcpy.p0.p0.i64(ptr align 8 %13, ptr align 8 %6, i64 8, i1 false), !tbaa.struct !148
  ret void
}

; Function Attrs: mustprogress uwtable
define linkonce_odr i64 @_ZNK2c43yml4Tree4typeEm(ptr noundef nonnull align 8 dereferenceable(256) %0, i64 noundef %1) #1 comdat align 2 {
  %3 = alloca %"struct.c4::yml::NodeType", align 8
  %4 = alloca ptr, align 8
  %5 = alloca i64, align 8
  store ptr %0, ptr %4, align 8, !tbaa !96
  store i64 %1, ptr %5, align 8, !tbaa !15
  %6 = load ptr, ptr %4, align 8
  %7 = load i64, ptr %5, align 8, !tbaa !15
  %8 = call noundef ptr @_ZNK2c43yml4Tree2_pEm(ptr noundef nonnull align 8 dereferenceable(256) %6, i64 noundef %7)
  %9 = getelementptr inbounds nuw %"struct.c4::yml::NodeData", ptr %8, i32 0, i32 0
  call void @llvm.memcpy.p0.p0.i64(ptr align 8 %3, ptr align 8 %9, i64 8, i1 false), !tbaa.struct !148
  %10 = getelementptr inbounds nuw %"struct.c4::yml::NodeType", ptr %3, i32 0, i32 0
  %11 = load i64, ptr %10, align 8
  ret i64 %11
}

; Function Attrs: mustprogress nounwind uwtable
define linkonce_odr void @_ZN2c415basic_substringIKcEC2ILm1EEERAT__S1_(ptr noundef nonnull align 8 dereferenceable(16) %0, ptr noundef nonnull align 1 dereferenceable(1) %1) unnamed_addr #0 comdat align 2 {
  %3 = alloca ptr, align 8
  %4 = alloca ptr, align 8
  store ptr %0, ptr %3, align 8, !tbaa !45
  store ptr %1, ptr %4, align 8, !tbaa !20
  %5 = load ptr, ptr %3, align 8
  %6 = getelementptr inbounds nuw %"struct.c4::basic_substring.0", ptr %5, i32 0, i32 0
  %7 = load ptr, ptr %4, align 8, !tbaa !20
  %8 = getelementptr inbounds [1 x i8], ptr %7, i64 0, i64 0
  store ptr %8, ptr %6, align 8, !tbaa !37
  %9 = getelementptr inbounds nuw %"struct.c4::basic_substring.0", ptr %5, i32 0, i32 1
  store i64 0, ptr %9, align 8, !tbaa !39
  ret void
}

; Function Attrs: mustprogress uwtable
define void @_ZN2c43yml4Tree19_lookup_path_modifyEPNS1_13lookup_resultE(ptr noundef nonnull align 8 dereferenceable(256) %0, ptr noundef %1) #1 align 2 {
  %3 = alloca ptr, align 8
  %4 = alloca ptr, align 8
  %5 = alloca %"struct.c4::yml::Tree::_lookup_path_token", align 8
  %6 = alloca %"struct.c4::basic_substring.0", align 8
  %7 = alloca %"struct.c4::yml::NodeType", align 8
  %8 = alloca i64, align 8
  %9 = alloca %"struct.c4::basic_substring.0", align 8
  %10 = alloca i32, align 4
  store ptr %0, ptr %3, align 8, !tbaa !96
  store ptr %1, ptr %4, align 8, !tbaa !204
  %11 = load ptr, ptr %3, align 8
  call void @llvm.lifetime.start.p0(i64 24, ptr %5) #25
  call void @_ZN2c415basic_substringIKcEC2ILm1EEERAT__S1_(ptr noundef nonnull align 8 dereferenceable(16) %6, ptr noundef nonnull align 1 dereferenceable(1) @.str.54) #25
  %12 = load ptr, ptr %4, align 8, !tbaa !204
  %13 = getelementptr inbounds nuw %"struct.c4::yml::Tree::lookup_result", ptr %12, i32 0, i32 1
  %14 = load i64, ptr %13, align 8, !tbaa !209
  %15 = call i64 @_ZNK2c43yml4Tree4typeEm(ptr noundef nonnull align 8 dereferenceable(256) %11, i64 noundef %14)
  %16 = getelementptr inbounds nuw %"struct.c4::yml::NodeType", ptr %7, i32 0, i32 0
  store i64 %15, ptr %16, align 8
  %17 = getelementptr inbounds nuw { ptr, i64 }, ptr %6, i32 0, i32 0
  %18 = load ptr, ptr %17, align 8
  %19 = getelementptr inbounds nuw { ptr, i64 }, ptr %6, i32 0, i32 1
  %20 = load i64, ptr %19, align 8
  %21 = getelementptr inbounds nuw %"struct.c4::yml::NodeType", ptr %7, i32 0, i32 0
  %22 = load i64, ptr %21, align 8
  call void @_ZN2c43yml4Tree18_lookup_path_tokenC2ENS_15basic_substringIKcEENS0_8NodeTypeE(ptr noundef nonnull align 8 dereferenceable(24) %5, ptr %18, i64 %20, i64 %22)
  call void @llvm.lifetime.start.p0(i64 8, ptr %8) #25
  br label %23

23:                                               ; preds = %45, %2
  %24 = load ptr, ptr %4, align 8, !tbaa !204
  %25 = call noundef i64 @_ZN2c43yml4Tree17_next_node_modifyEPNS1_13lookup_resultEPNS1_18_lookup_path_tokenE(ptr noundef nonnull align 8 dereferenceable(256) %11, ptr noundef %24, ptr noundef %5)
  store i64 %25, ptr %8, align 8, !tbaa !15
  %26 = load i64, ptr %8, align 8, !tbaa !15
  %27 = icmp ne i64 %26, -1
  br i1 %27, label %28, label %32

28:                                               ; preds = %23
  %29 = load i64, ptr %8, align 8, !tbaa !15
  %30 = load ptr, ptr %4, align 8, !tbaa !204
  %31 = getelementptr inbounds nuw %"struct.c4::yml::Tree::lookup_result", ptr %30, i32 0, i32 1
  store i64 %29, ptr %31, align 8, !tbaa !209
  br label %32

32:                                               ; preds = %28, %23
  call void @llvm.lifetime.start.p0(i64 16, ptr %9) #25
  %33 = load ptr, ptr %4, align 8, !tbaa !204
  %34 = call { ptr, i64 } @_ZNK2c43yml4Tree13lookup_result10unresolvedEv(ptr noundef nonnull align 8 dereferenceable(40) %33)
  %35 = getelementptr inbounds nuw { ptr, i64 }, ptr %9, i32 0, i32 0
  %36 = extractvalue { ptr, i64 } %34, 0
  store ptr %36, ptr %35, align 8
  %37 = getelementptr inbounds nuw { ptr, i64 }, ptr %9, i32 0, i32 1
  %38 = extractvalue { ptr, i64 } %34, 1
  store i64 %38, ptr %37, align 8
  %39 = call noundef zeroext i1 @_ZNK2c415basic_substringIKcE5emptyEv(ptr noundef nonnull align 8 dereferenceable(16) %9) #26
  call void @llvm.lifetime.end.p0(i64 16, ptr %9) #25
  br i1 %39, label %40, label %44

40:                                               ; preds = %32
  %41 = load i64, ptr %8, align 8, !tbaa !15
  %42 = load ptr, ptr %4, align 8, !tbaa !204
  %43 = getelementptr inbounds nuw %"struct.c4::yml::Tree::lookup_result", ptr %42, i32 0, i32 0
  store i64 %41, ptr %43, align 8, !tbaa !208
  store i32 1, ptr %10, align 4
  br label %49

44:                                               ; preds = %32
  br label %45

45:                                               ; preds = %44
  %46 = load i64, ptr %8, align 8, !tbaa !15
  %47 = icmp ne i64 %46, -1
  br i1 %47, label %23, label %48, !llvm.loop !211

48:                                               ; preds = %45
  store i32 0, ptr %10, align 4
  br label %49

49:                                               ; preds = %48, %40
  call void @llvm.lifetime.end.p0(i64 8, ptr %8) #25
  call void @llvm.lifetime.end.p0(i64 24, ptr %5) #25
  %50 = load i32, ptr %10, align 4
  switch i32 %50, label %52 [
    i32 0, label %51
    i32 1, label %51
  ]

51:                                               ; preds = %49, %49
  ret void

52:                                               ; preds = %49
  unreachable
}